target datalayout = "e-m:e-p270:32:32-p271:32:32-p272:64:64-i64:64-i128:128-f80:128-n8:16:32:64-S128"
target triple = "x86_64-unknown-linux-gnu"

%class.symbol = type { ptr }
%class.expr_inverter = type { %class.iexpr_inverter.base, %class.ptr_vector }
%class.iexpr_inverter.base = type <{ ptr, ptr, %"class.std::function", %class.ref, i8 }>
%"class.std::function" = type { %"class.std::_Function_base", ptr }
%"class.std::_Function_base" = type { %"union.std::_Any_data", ptr }
%"union.std::_Any_data" = type { %"union.std::_Nocopy_types" }
%"union.std::_Nocopy_types" = type { { i64, i64 } }
%class.ref = type { ptr }
%class.ptr_vector = type { %class.vector }
%class.vector = type { ptr }
%class.iexpr_inverter = type <{ ptr, ptr, %"class.std::function", %class.ref, i8, [7 x i8] }>
%class.decl = type { %class.ast, %class.symbol, ptr }
%class.ast = type { i32, i24, i32, i32 }
%class.sort_size = type { i32, i64 }
%class.decl_info = type <{ i32, i32, %class.vector.67, i8, [7 x i8] }>
%class.vector.67 = type { ptr }
%class.sort_info = type { %class.decl_info.base, %class.sort_size }
%class.decl_info.base = type <{ i32, i32, %class.vector.67, i8 }>

; Function Attrs: mustprogress nounwind uwtable
define linkonce_odr hidden noundef i32 @_ZNK6vectorIP14iexpr_inverterLb0EjE4sizeEv(ptr noundef nonnull align 8 dereferenceable(8) %this) #4 comdat align 2 {
entry:
  %retval = alloca i32, align 4
  %this.addr = alloca ptr, align 8
  store ptr %this, ptr %this.addr, align 8
  %this1 = load ptr, ptr %this.addr, align 8
  %m_data = getelementptr inbounds %class.vector, ptr %this1, i32 0, i32 0
  %0 = load ptr, ptr %m_data, align 8
  %cmp = icmp eq ptr %0, null
  br i1 %cmp, label %if.then, label %if.end

if.then:                                          ; preds = %entry
  store i32 0, ptr %retval, align 4
  br label %return

if.end:                                           ; preds = %entry
  %m_data2 = getelementptr inbounds %class.vector, ptr %this1, i32 0, i32 0
  %1 = load ptr, ptr %m_data2, align 8
  %arrayidx = getelementptr inbounds i32, ptr %1, i64 -1
  %2 = load i32, ptr %arrayidx, align 4
  store i32 %2, ptr %retval, align 4
  br label %return

return:                                           ; preds = %if.end, %if.then
  %3 = load i32, ptr %retval, align 4
  ret i32 %3
}

; Function Attrs: mustprogress nounwind uwtable
define linkonce_odr hidden noundef i32 @_ZNK9decl_info13get_family_idEv(ptr noundef nonnull align 8 dereferenceable(17) %this) #4 comdat align 2 {
entry:
  %this.addr = alloca ptr, align 8
  store ptr %this, ptr %this.addr, align 8
  %this1 = load ptr, ptr %this.addr, align 8
  %m_family_id = getelementptr inbounds %class.decl_info, ptr %this1, i32 0, i32 0
  %0 = load i32, ptr %m_family_id, align 8
  ret i32 %0
}

; Function Attrs: mustprogress nounwind uwtable
define linkonce_odr hidden noundef nonnull align 8 dereferenceable(16) ptr @_ZNK9sort_info16get_num_elementsEv(ptr noundef nonnull align 8 dereferenceable(40) %this) #4 comdat align 2 {
entry:
  %this.addr = alloca ptr, align 8
  store ptr %this, ptr %this.addr, align 8
  %this1 = load ptr, ptr %this.addr, align 8
  %m_num_elements = getelementptr inbounds %class.sort_info, ptr %this1, i32 0, i32 1
  ret ptr %m_num_elements
}

; Function Attrs: mustprogress nounwind uwtable
define linkonce_odr hidden noundef ptr @_ZNK4sort8get_infoEv(ptr noundef nonnull align 8 dereferenceable(32) %this) #4 comdat align 2 {
entry:
  %this.addr = alloca ptr, align 8
  store ptr %this, ptr %this.addr, align 8
  %this1 = load ptr, ptr %this.addr, align 8
  %m_info = getelementptr inbounds %class.decl, ptr %this1, i32 0, i32 2
  %0 = load ptr, ptr %m_info, align 8
  ret ptr %0
}

; Function Attrs: mustprogress nounwind uwtable
define linkonce_odr hidden noundef nonnull align 8 dereferenceable(8) ptr @_ZNK6vectorIP14iexpr_inverterLb0EjE3getEjRKS1_(ptr noundef nonnull align 8 dereferenceable(8) %this, i32 noundef %idx, ptr noundef nonnull align 8 dereferenceable(8) %d) #4 comdat align 2 {
entry:
  %retval = alloca ptr, align 8
  %this.addr = alloca ptr, align 8
  %idx.addr = alloca i32, align 4
  %d.addr = alloca ptr, align 8
  store ptr %this, ptr %this.addr, align 8
  store i32 %idx, ptr %idx.addr, align 4
  store ptr %d, ptr %d.addr, align 8
  %this1 = load ptr, ptr %this.addr, align 8
  %0 = load i32, ptr %idx.addr, align 4
  %call = call noundef i32 @_ZNK6vectorIP14iexpr_inverterLb0EjE4sizeEv(ptr noundef nonnull align 8 dereferenceable(8) %this1)
  %cmp = icmp uge i32 %0, %call
  br i1 %cmp, label %if.then, label %if.end

if.then:                                          ; preds = %entry
  %1 = load ptr, ptr %d.addr, align 8
  store ptr %1, ptr %retval, align 8
  br label %return

if.end:                                           ; preds = %entry
  %m_data = getelementptr inbounds %class.vector, ptr %this1, i32 0, i32 0
  %2 = load ptr, ptr %m_data, align 8
  %3 = load i32, ptr %idx.addr, align 4
  %idxprom = zext i32 %3 to i64
  %arrayidx = getelementptr inbounds ptr, ptr %2, i64 %idxprom
  store ptr %arrayidx, ptr %retval, align 8
  br label %return

return:                                           ; preds = %if.end, %if.then
  %4 = load ptr, ptr %retval, align 8
  ret ptr %4
}

; Function Attrs: mustprogress uwtable
define linkonce_odr hidden noundef i32 @_ZNK4decl13get_family_idEv(ptr noundef nonnull align 8 dereferenceable(32) %this) #6 comdat align 2 {
entry:
  %this.addr = alloca ptr, align 8
  store ptr %this, ptr %this.addr, align 8
  %this1 = load ptr, ptr %this.addr, align 8
  %m_info = getelementptr inbounds %class.decl, ptr %this1, i32 0, i32 2
  %0 = load ptr, ptr %m_info, align 8
  %cmp = icmp eq ptr %0, null
  br i1 %cmp, label %cond.true, label %cond.false

cond.true:                                        ; preds = %entry
  br label %cond.end

cond.false:                                       ; preds = %entry
  %m_info2 = getelementptr inbounds %class.decl, ptr %this1, i32 0, i32 2
  %1 = load ptr, ptr %m_info2, align 8
  %call = call noundef i32 @_ZNK9decl_info13get_family_idEv(ptr noundef nonnull align 8 dereferenceable(17) %1)
  br label %cond.end

cond.end:                                         ; preds = %cond.false, %cond.true
  %cond = phi i32 [ -1, %cond.true ], [ %call, %cond.false ]
  ret i32 %cond
}

; Function Attrs: mustprogress nounwind uwtable
define linkonce_odr hidden noundef zeroext i1 @_ZNK3refI23generic_model_converterEntEv(ptr noundef nonnull align 8 dereferenceable(8) %this) #4 comdat align 2 {
entry:
  %this.addr = alloca ptr, align 8
  store ptr %this, ptr %this.addr, align 8
  %this1 = load ptr, ptr %this.addr, align 8
  %m_ptr = getelementptr inbounds %class.ref, ptr %this1, i32 0, i32 0
  %0 = load ptr, ptr %m_ptr, align 8
  %cmp = icmp eq ptr %0, null
  ret i1 %cmp
}

; Function Attrs: mustprogress nounwind uwtable
define linkonce_odr hidden noundef i64 @_ZNK9sort_size4sizeEv(ptr noundef nonnull align 8 dereferenceable(16) %this) #4 comdat align 2 {
entry:
  %this.addr = alloca ptr, align 8
  store ptr %this, ptr %this.addr, align 8
  %this1 = load ptr, ptr %this.addr, align 8
  %m_size = getelementptr inbounds %class.sort_size, ptr %this1, i32 0, i32 1
  %0 = load i64, ptr %m_size, align 8
  ret i64 %0
}

; Function Attrs: mustprogress nounwind uwtable
define linkonce_odr hidden noundef zeroext i1 @_ZNK9sort_size9is_finiteEv(ptr noundef nonnull align 8 dereferenceable(16) %this) #4 comdat align 2 {
entry:
  %this.addr = alloca ptr, align 8
  store ptr %this, ptr %this.addr, align 8
  %this1 = load ptr, ptr %this.addr, align 8
  %m_kind = getelementptr inbounds %class.sort_size, ptr %this1, i32 0, i32 0
  %0 = load i32, ptr %m_kind, align 8
  %cmp = icmp eq i32 %0, 0
  ret i1 %cmp
}

; Function Attrs: mustprogress uwtable
define linkonce_odr hidden noundef nonnull align 8 dereferenceable(16) ptr @_ZNK4sort16get_num_elementsEv(ptr noundef nonnull align 8 dereferenceable(32) %this) #6 comdat align 2 {
entry:
  %this.addr = alloca ptr, align 8
  store ptr %this, ptr %this.addr, align 8
  %this1 = load ptr, ptr %this.addr, align 8
  %call = call noundef ptr @_ZNK4sort8get_infoEv(ptr noundef nonnull align 8 dereferenceable(32) %this1)
  %call2 = call noundef nonnull align 8 dereferenceable(16) ptr @_ZNK9sort_info16get_num_elementsEv(ptr noundef nonnull align 8 dereferenceable(40) %call)
  ret ptr %call2
}

; Function Attrs: mustprogress uwtable
define hidden noundef zeroext i1 @_ZN13expr_inverter7mk_diffEP4exprR7obj_refIS0_11ast_managerE(ptr noundef nonnull align 8 dereferenceable(72) %this, ptr noundef %t, ptr noundef nonnull align 8 dereferenceable(16) %r) unnamed_addr #6 align 2 {
entry:
  %retval = alloca i1, align 1
  %this.addr = alloca ptr, align 8
  %t.addr = alloca ptr, align 8
  %r.addr = alloca ptr, align 8
  %s = alloca ptr, align 8
  %sz = alloca %class.sort_size, align 8
  %fid = alloca i32, align 4
  %p = alloca ptr, align 8
  %ref.tmp = alloca ptr, align 8
  store ptr %this, ptr %this.addr, align 8
  store ptr %t, ptr %t.addr, align 8
  store ptr %r, ptr %r.addr, align 8
  %this1 = load ptr, ptr %this.addr, align 8
  %0 = load ptr, ptr %t.addr, align 8
  %call = call noundef ptr @_ZNK4expr8get_sortEv(ptr noundef nonnull align 4 dereferenceable(16) %0)
  store ptr %call, ptr %s, align 8
  %m = getelementptr inbounds %class.iexpr_inverter, ptr %this1, i32 0, i32 1
  %1 = load ptr, ptr %m, align 8
  %2 = load ptr, ptr %s, align 8
  %call2 = call noundef zeroext i1 @_ZNK11ast_manager15is_fully_interpEP4sort(ptr noundef nonnull align 8 dereferenceable(976) %1, ptr noundef %2)
  br i1 %call2, label %if.end, label %if.then

if.then:                                          ; preds = %entry
  store i1 false, ptr %retval, align 1
  br label %return

if.end:                                           ; preds = %entry
  %3 = load ptr, ptr %s, align 8
  %call3 = call noundef nonnull align 8 dereferenceable(16) ptr @_ZNK4sort16get_num_elementsEv(ptr noundef nonnull align 8 dereferenceable(32) %3)
  call void @llvm.memcpy.p0.p0.i64(ptr align 8 %sz, ptr align 8 %call3, i64 16, i1 false)
  %call4 = call noundef zeroext i1 @_ZNK9sort_size9is_finiteEv(ptr noundef nonnull align 8 dereferenceable(16) %sz)
  br i1 %call4, label %land.lhs.true, label %if.end7

land.lhs.true:                                    ; preds = %if.end
  %call5 = call noundef i64 @_ZNK9sort_size4sizeEv(ptr noundef nonnull align 8 dereferenceable(16) %sz)
  %cmp = icmp ule i64 %call5, 1
  br i1 %cmp, label %if.then6, label %if.end7

if.then6:                                         ; preds = %land.lhs.true
  store i1 false, ptr %retval, align 1
  br label %return

if.end7:                                          ; preds = %land.lhs.true, %if.end
  %m_mc = getelementptr inbounds %class.iexpr_inverter, ptr %this1, i32 0, i32 3
  %call8 = call noundef zeroext i1 @_ZNK3refI23generic_model_converterEntEv(ptr noundef nonnull align 8 dereferenceable(8) %m_mc)
  br i1 %call8, label %if.then9, label %if.end10

if.then9:                                         ; preds = %if.end7
  %4 = load ptr, ptr %s, align 8
  %5 = load ptr, ptr %r.addr, align 8
  call void @_ZN14iexpr_inverter24mk_fresh_uncnstr_var_forEP4sortR7obj_refI4expr11ast_managerE(ptr noundef nonnull align 8 dereferenceable(57) %this1, ptr noundef %4, ptr noundef nonnull align 8 dereferenceable(16) %5)
  store i1 true, ptr %retval, align 1
  br label %return

if.end10:                                         ; preds = %if.end7
  %6 = load ptr, ptr %s, align 8
  %call11 = call noundef i32 @_ZNK4decl13get_family_idEv(ptr noundef nonnull align 8 dereferenceable(32) %6)
  store i32 %call11, ptr %fid, align 4
  %m_inverters = getelementptr inbounds %class.expr_inverter, ptr %this1, i32 0, i32 1
  %7 = load i32, ptr %fid, align 4
  store ptr null, ptr %ref.tmp, align 8
  %call12 = call noundef nonnull align 8 dereferenceable(8) ptr @_ZNK6vectorIP14iexpr_inverterLb0EjE3getEjRKS1_(ptr noundef nonnull align 8 dereferenceable(8) %m_inverters, i32 noundef %7, ptr noundef nonnull align 8 dereferenceable(8) %ref.tmp)
  %8 = load ptr, ptr %call12, align 8
  store ptr %8, ptr %p, align 8
  %9 = load ptr, ptr %p, align 8
  %tobool = icmp ne ptr %9, null
  br i1 %tobool, label %land.rhs, label %land.end

land.rhs:                                         ; preds = %if.end10
  %10 = load ptr, ptr %p, align 8
  %11 = load ptr, ptr %t.addr, align 8
  %12 = load ptr, ptr %r.addr, align 8
  %vtable = load ptr, ptr %10, align 8
  %vfn = getelementptr inbounds ptr, ptr %vtable, i64 6
  %13 = load ptr, ptr %vfn, align 8
  %call13 = call noundef zeroext i1 %13(ptr noundef nonnull align 8 dereferenceable(57) %10, ptr noundef %11, ptr noundef nonnull align 8 dereferenceable(16) %12)
  br label %land.end

land.end:                                         ; preds = %land.rhs, %if.end10
  %14 = phi i1 [ false, %if.end10 ], [ %call13, %land.rhs ]
  store i1 %14, ptr %retval, align 1
  br label %return

return:                                           ; preds = %land.end, %if.then9, %if.then6, %if.then
  %15 = load i1, ptr %retval, align 1
  ret i1 %15
}