; Function Attrs: mustprogress uwtable
define hidden noundef zeroext i1 @_ZN13expr_inverter7mk_diffEP4exprR7obj_refIS0_11ast_managerE(ptr nocapture noundef nonnull readonly align 8 dereferenceable(72) %this, ptr noundef nonnull %t, ptr noundef nonnull align 8 dereferenceable(16) %r) unnamed_addr #6 align 2 {
entry:
  %call = tail call noundef ptr @_ZNK4expr8get_sortEv(ptr noundef nonnull align 4 dereferenceable(16) %t)
  %m = getelementptr inbounds i8, ptr %this, i64 8
  %0 = load ptr, ptr %m, align 8
  %call2 = tail call noundef zeroext i1 @_ZNK11ast_manager15is_fully_interpEP4sort(ptr noundef nonnull align 8 dereferenceable(976) %0, ptr noundef %call)
  br i1 %call2, label %if.end, label %return

if.end:                                           ; preds = %entry
  %m_info.i.i = getelementptr inbounds i8, ptr %call, i64 24
  %1 = load ptr, ptr %m_info.i.i, align 8
  %m_num_elements.i.i = getelementptr inbounds i8, ptr %1, i64 24
  %sz.sroa.0.0.copyload = load i32, ptr %m_num_elements.i.i, align 8
  %sz.sroa.29.0.m_num_elements.i.i.sroa_idx = getelementptr inbounds i8, ptr %1, i64 32
  %sz.sroa.29.0.copyload = load i64, ptr %sz.sroa.29.0.m_num_elements.i.i.sroa_idx, align 8
  %cmp.i = icmp eq i32 %sz.sroa.0.0.copyload, 0
  %cmp = icmp ult i64 %sz.sroa.29.0.copyload, 2
  %or.cond = select i1 %cmp.i, i1 %cmp, i1 false
  br i1 %or.cond, label %return, label %if.end7

if.end7:                                          ; preds = %if.end
  %m_mc = getelementptr inbounds i8, ptr %this, i64 48
  %2 = load ptr, ptr %m_mc, align 8
  %cmp.i7 = icmp eq ptr %2, null
  br i1 %cmp.i7, label %if.then9, label %_ZNK4decl13get_family_idEv.exit

if.then9:                                         ; preds = %if.end7
  tail call void @_ZN14iexpr_inverter24mk_fresh_uncnstr_var_forEP4sortR7obj_refI4expr11ast_managerE(ptr noundef nonnull align 8 dereferenceable(57) %this, ptr noundef nonnull %call, ptr noundef nonnull align 8 dereferenceable(16) %r)
  br label %return

_ZNK4decl13get_family_idEv.exit:                  ; preds = %if.end7
  %m_inverters = getelementptr inbounds i8, ptr %this, i64 64
  %3 = load ptr, ptr %m_inverters, align 8
  %cmp.i.i = icmp eq ptr %3, null
  br i1 %cmp.i.i, label %return, label %_ZNK6vectorIP14iexpr_inverterLb0EjE3getEjRKS1_.exit

_ZNK6vectorIP14iexpr_inverterLb0EjE3getEjRKS1_.exit: ; preds = %_ZNK4decl13get_family_idEv.exit
  %4 = load i32, ptr %1, align 8
  %arrayidx.i.i = getelementptr inbounds i8, ptr %3, i64 -4
  %5 = load i32, ptr %arrayidx.i.i, align 4
  %cmp.not.i = icmp ugt i32 %5, %4
  br i1 %cmp.not.i, label %_ZNK6vectorIP14iexpr_inverterLb0EjE3getEjRKS1_.exit.cont, label %return

_ZNK6vectorIP14iexpr_inverterLb0EjE3getEjRKS1_.exit.cont: ; preds = %_ZNK6vectorIP14iexpr_inverterLb0EjE3getEjRKS1_.exit
  %idxprom.i = zext i32 %4 to i64
  %arrayidx.i = getelementptr inbounds ptr, ptr %3, i64 %idxprom.i
  %.then.val = load ptr, ptr %arrayidx.i, align 8
  %tobool.not = icmp eq ptr %.then.val, null
  br i1 %tobool.not, label %return, label %land.rhs

land.rhs:                                         ; preds = %_ZNK6vectorIP14iexpr_inverterLb0EjE3getEjRKS1_.exit.cont
  %vtable = load ptr, ptr %.then.val, align 8
  %vfn = getelementptr inbounds i8, ptr %vtable, i64 48
  %6 = load ptr, ptr %vfn, align 8
  %call13 = tail call noundef zeroext i1 %6(ptr noundef nonnull align 8 dereferenceable(57) %.then.val, ptr noundef nonnull %t, ptr noundef nonnull align 8 dereferenceable(16) %r)
  br label %return

return:                                           ; preds = %if.end, %_ZNK4decl13get_family_idEv.exit, %_ZNK6vectorIP14iexpr_inverterLb0EjE3getEjRKS1_.exit, %_ZNK6vectorIP14iexpr_inverterLb0EjE3getEjRKS1_.exit.cont, %land.rhs, %entry, %if.then9
  %retval.0 = phi i1 [ true, %if.then9 ], [ false, %entry ], [ false, %_ZNK6vectorIP14iexpr_inverterLb0EjE3getEjRKS1_.exit.cont ], [ %call13, %land.rhs ], [ false, %_ZNK6vectorIP14iexpr_inverterLb0EjE3getEjRKS1_.exit ], [ false, %_ZNK4decl13get_family_idEv.exit ], [ false, %if.end ]
  ret i1 %retval.0
}